target datalayout = "e-m:e-p270:32:32-p271:32:32-p272:64:64-i64:64-i128:128-f80:128-n8:16:32:64-S128"
target triple = "x86_64-unknown-linux-gnu"

%"class.boost::detail::shared_count" = type { ptr }
%"class.boost::shared_ptr.24" = type { ptr, %"class.boost::detail::shared_count" }
%"class.QuantLib::(anonymous namespace)::Integrand" = type { %"class.boost::shared_ptr.24", double, double, double, double, double, double, double, double, double }
%"class.QuantLib::BlackScholesCalculator" = type { %"class.QuantLib::BlackCalculator", double, double }
%"class.QuantLib::BlackCalculator" = type { ptr, double, double, double, double, double, double, double, double, double, double, double, double, double, double, double, double, double, double }

; Function Attrs: mustprogress nounwind uwtable
define linkonce_odr void @_ZN8QuantLib15BlackCalculatorD2Ev(ptr noundef nonnull align 8 dereferenceable(152) %this) unnamed_addr #1 comdat align 2 {
entry:
  %this.addr = alloca ptr, align 8
  store ptr %this, ptr %this.addr, align 8, !tbaa !3
  ret void
}

; Function Attrs: mustprogress uwtable
define internal noundef double @_ZNK8QuantLib12_GLOBAL__N_19IntegrandclEd(ptr noundef nonnull align 8 dereferenceable(88) %this, double noundef %x) #2 align 2 personality ptr @__gxx_personality_v0 {
entry:
  %this.addr = alloca ptr, align 8
  %x.addr = alloca double, align 8
  %s0_adj = alloca double, align 8
  %vol_adj = alloca double, align 8
  %bs = alloca %"class.QuantLib::BlackScholesCalculator", align 8
  %bsprice = alloca double, align 8
  %exn.slot = alloca ptr, align 8
  %ehselector.slot = alloca i32, align 4
  %gamp = alloca double, align 8
  %result = alloca double, align 8
  store ptr %this, ptr %this.addr, align 8, !tbaa !3
  store double %x, ptr %x.addr, align 8, !tbaa !14
  %this1 = load ptr, ptr %this.addr, align 8
  call void @llvm.lifetime.start.p0(i64 8, ptr %s0_adj) #13
  %s0_ = getelementptr inbounds nuw %"class.QuantLib::(anonymous namespace)::Integrand", ptr %this1, i32 0, i32 1
  %0 = load double, ptr %s0_, align 8, !tbaa !85
  %theta_ = getelementptr inbounds nuw %"class.QuantLib::(anonymous namespace)::Integrand", ptr %this1, i32 0, i32 7
  %1 = load double, ptr %theta_, align 8, !tbaa !92
  %2 = load double, ptr %x.addr, align 8, !tbaa !14
  %omega_ = getelementptr inbounds nuw %"class.QuantLib::(anonymous namespace)::Integrand", ptr %this1, i32 0, i32 8
  %3 = load double, ptr %omega_, align 8, !tbaa !93
  %t_ = getelementptr inbounds nuw %"class.QuantLib::(anonymous namespace)::Integrand", ptr %this1, i32 0, i32 2
  %4 = load double, ptr %t_, align 8, !tbaa !87
  %mul2 = fmul double %3, %4
  %5 = call double @llvm.fmuladd.f64(double %1, double %2, double %mul2)
  %sigma_ = getelementptr inbounds nuw %"class.QuantLib::(anonymous namespace)::Integrand", ptr %this1, i32 0, i32 5
  %6 = load double, ptr %sigma_, align 8, !tbaa !90
  %sigma_3 = getelementptr inbounds nuw %"class.QuantLib::(anonymous namespace)::Integrand", ptr %this1, i32 0, i32 5
  %7 = load double, ptr %sigma_3, align 8, !tbaa !90
  %mul = fmul double %6, %7
  %8 = load double, ptr %x.addr, align 8, !tbaa !14
  %mul4 = fmul double %mul, %8
  %div = fdiv double %mul4, 2.000000e+00
  %add = fadd double %5, %div
  %call = call double @exp(double noundef %add) #13, !tbaa !54
  %mul5 = fmul double %0, %call
  store double %mul5, ptr %s0_adj, align 8, !tbaa !14
  call void @llvm.lifetime.start.p0(i64 8, ptr %vol_adj) #13
  %sigma_6 = getelementptr inbounds nuw %"class.QuantLib::(anonymous namespace)::Integrand", ptr %this1, i32 0, i32 5
  %9 = load double, ptr %sigma_6, align 8, !tbaa !90
  %10 = load double, ptr %x.addr, align 8, !tbaa !14
  %t_7 = getelementptr inbounds nuw %"class.QuantLib::(anonymous namespace)::Integrand", ptr %this1, i32 0, i32 2
  %11 = load double, ptr %t_7, align 8, !tbaa !87
  %div8 = fdiv double %10, %11
  %call9 = call double @sqrt(double noundef %div8) #13, !tbaa !54
  %mul10 = fmul double %9, %call9
  store double %mul10, ptr %vol_adj, align 8, !tbaa !14
  %t_11 = getelementptr inbounds nuw %"class.QuantLib::(anonymous namespace)::Integrand", ptr %this1, i32 0, i32 2
  %12 = load double, ptr %t_11, align 8, !tbaa !87
  %call12 = call double @sqrt(double noundef %12) #13, !tbaa !54
  %13 = load double, ptr %vol_adj, align 8, !tbaa !14
  %mul13 = fmul double %13, %call12
  store double %mul13, ptr %vol_adj, align 8, !tbaa !14
  call void @llvm.lifetime.start.p0(i64 168, ptr %bs) #13
  %payoff_ = getelementptr inbounds nuw %"class.QuantLib::(anonymous namespace)::Integrand", ptr %this1, i32 0, i32 0
  %14 = load double, ptr %s0_adj, align 8, !tbaa !14
  %dividendDiscount_ = getelementptr inbounds nuw %"class.QuantLib::(anonymous namespace)::Integrand", ptr %this1, i32 0, i32 4
  %15 = load double, ptr %dividendDiscount_, align 8, !tbaa !89
  %16 = load double, ptr %vol_adj, align 8, !tbaa !14
  %riskFreeDiscount_ = getelementptr inbounds nuw %"class.QuantLib::(anonymous namespace)::Integrand", ptr %this1, i32 0, i32 3
  %17 = load double, ptr %riskFreeDiscount_, align 8, !tbaa !88
  call void @_ZN8QuantLib22BlackScholesCalculatorC1ERKN5boost10shared_ptrINS_17StrikedTypePayoffEEEdddd(ptr noundef nonnull align 8 dereferenceable(168) %bs, ptr noundef nonnull align 8 dereferenceable(16) %payoff_, double noundef %14, double noundef %15, double noundef %16, double noundef %17)
  call void @llvm.lifetime.start.p0(i64 8, ptr %bsprice) #13
  %call14 = invoke noundef double @_ZNK8QuantLib15BlackCalculator5valueEv(ptr noundef nonnull align 8 dereferenceable(152) %bs)
          to label %invoke.cont unwind label %lpad

invoke.cont:                                      ; preds = %entry
  store double %call14, ptr %bsprice, align 8, !tbaa !14
  call void @llvm.lifetime.start.p0(i64 8, ptr %gamp) #13
  %18 = load double, ptr %x.addr, align 8, !tbaa !14
  %t_15 = getelementptr inbounds nuw %"class.QuantLib::(anonymous namespace)::Integrand", ptr %this1, i32 0, i32 2
  %19 = load double, ptr %t_15, align 8, !tbaa !87
  %nu_ = getelementptr inbounds nuw %"class.QuantLib::(anonymous namespace)::Integrand", ptr %this1, i32 0, i32 6
  %20 = load double, ptr %nu_, align 8, !tbaa !91
  %div16 = fdiv double %19, %20
  %sub = fsub double %div16, 1.000000e+00
  %call17 = call double @pow(double noundef %18, double noundef %sub) #13, !tbaa !54
  %21 = load double, ptr %x.addr, align 8, !tbaa !14
  %fneg = fneg double %21
  %nu_18 = getelementptr inbounds nuw %"class.QuantLib::(anonymous namespace)::Integrand", ptr %this1, i32 0, i32 6
  %22 = load double, ptr %nu_18, align 8, !tbaa !91
  %div19 = fdiv double %fneg, %22
  %call20 = call double @exp(double noundef %div19) #13, !tbaa !54
  %mul21 = fmul double %call17, %call20
  %gammaDenom_ = getelementptr inbounds nuw %"class.QuantLib::(anonymous namespace)::Integrand", ptr %this1, i32 0, i32 9
  %23 = load double, ptr %gammaDenom_, align 8, !tbaa !94
  %div22 = fdiv double %mul21, %23
  store double %div22, ptr %gamp, align 8, !tbaa !14
  call void @llvm.lifetime.start.p0(i64 8, ptr %result) #13
  %24 = load double, ptr %bsprice, align 8, !tbaa !14
  %25 = load double, ptr %gamp, align 8, !tbaa !14
  %mul23 = fmul double %24, %25
  store double %mul23, ptr %result, align 8, !tbaa !14
  %26 = load double, ptr %result, align 8, !tbaa !14
  call void @llvm.lifetime.end.p0(i64 8, ptr %result) #13
  call void @llvm.lifetime.end.p0(i64 8, ptr %gamp) #13
  call void @llvm.lifetime.end.p0(i64 8, ptr %bsprice) #13
  call void @_ZN8QuantLib15BlackCalculatorD2Ev(ptr noundef nonnull align 8 dereferenceable(168) %bs) #13
  call void @llvm.lifetime.end.p0(i64 168, ptr %bs) #13
  call void @llvm.lifetime.end.p0(i64 8, ptr %vol_adj) #13
  call void @llvm.lifetime.end.p0(i64 8, ptr %s0_adj) #13
  ret double %26

lpad:                                             ; preds = %entry
  %27 = landingpad { ptr, i32 }
          cleanup
  %28 = extractvalue { ptr, i32 } %27, 0
  store ptr %28, ptr %exn.slot, align 8
  %29 = extractvalue { ptr, i32 } %27, 1
  store i32 %29, ptr %ehselector.slot, align 4
  call void @llvm.lifetime.end.p0(i64 8, ptr %bsprice) #13
  call void @_ZN8QuantLib15BlackCalculatorD2Ev(ptr noundef nonnull align 8 dereferenceable(168) %bs) #13
  call void @llvm.lifetime.end.p0(i64 168, ptr %bs) #13
  call void @llvm.lifetime.end.p0(i64 8, ptr %vol_adj) #13
  call void @llvm.lifetime.end.p0(i64 8, ptr %s0_adj) #13
  br label %eh.resume

eh.resume:                                        ; preds = %lpad
  %exn = load ptr, ptr %exn.slot, align 8
  %sel = load i32, ptr %ehselector.slot, align 4
  %lpad.val = insertvalue { ptr, i32 } poison, ptr %exn, 0
  %lpad.val24 = insertvalue { ptr, i32 } %lpad.val, i32 %sel, 1
  resume { ptr, i32 } %lpad.val24
}

; Function Attrs: mustprogress nounwind uwtable
define linkonce_odr noundef ptr @_ZNKSt9_Any_data9_M_accessEv(ptr noundef nonnull align 8 dereferenceable(16) %this) #1 comdat align 2 {
entry:
  %this.addr = alloca ptr, align 8
  store ptr %this, ptr %this.addr, align 8, !tbaa !3
  %this1 = load ptr, ptr %this.addr, align 8
  %arrayidx = getelementptr inbounds [16 x i8], ptr %this1, i64 0, i64 0
  ret ptr %arrayidx
}

; Function Attrs: mustprogress uwtable
define internal noundef double @_ZSt13__invoke_implIdRN8QuantLib12_GLOBAL__N_19IntegrandEJdEET_St14__invoke_otherOT0_DpOT1_(ptr noundef nonnull align 8 dereferenceable(88) %__f, ptr noundef nonnull align 8 dereferenceable(8) %__args) #2 {
entry:
  %__f.addr = alloca ptr, align 8
  %__args.addr = alloca ptr, align 8
  store ptr %__f, ptr %__f.addr, align 8, !tbaa !3
  store ptr %__args, ptr %__args.addr, align 8, !tbaa !3
  %0 = load ptr, ptr %__f.addr, align 8, !tbaa !3
  %1 = load ptr, ptr %__args.addr, align 8, !tbaa !3
  %2 = load double, ptr %1, align 8, !tbaa !14
  %call = call noundef double @_ZNK8QuantLib12_GLOBAL__N_19IntegrandclEd(ptr noundef nonnull align 8 dereferenceable(88) %0, double noundef %2)
  ret double %call
}

; Function Attrs: mustprogress nounwind uwtable
define internal noundef nonnull align 8 dereferenceable(8) ptr @_ZNKSt9_Any_data9_M_accessIPN8QuantLib12_GLOBAL__N_19IntegrandEEERKT_v(ptr noundef nonnull align 8 dereferenceable(16) %this) #1 align 2 {
entry:
  %this.addr = alloca ptr, align 8
  store ptr %this, ptr %this.addr, align 8, !tbaa !3
  %this1 = load ptr, ptr %this.addr, align 8
  %call = call noundef ptr @_ZNKSt9_Any_data9_M_accessEv(ptr noundef nonnull align 8 dereferenceable(16) %this1) #13
  ret ptr %call
}

; Function Attrs: mustprogress uwtable
define internal noundef double @_ZSt10__invoke_rIdRN8QuantLib12_GLOBAL__N_19IntegrandEJdEENSt9enable_ifIX16is_invocable_r_vIT_T0_DpT1_EES5_E4typeEOS6_DpOS7_(ptr noundef nonnull align 8 dereferenceable(88) %__fn, ptr noundef nonnull align 8 dereferenceable(8) %__args) #2 {
entry:
  %__fn.addr = alloca ptr, align 8
  %__args.addr = alloca ptr, align 8
  store ptr %__fn, ptr %__fn.addr, align 8, !tbaa !3
  store ptr %__args, ptr %__args.addr, align 8, !tbaa !3
  %0 = load ptr, ptr %__fn.addr, align 8, !tbaa !3
  %1 = load ptr, ptr %__args.addr, align 8, !tbaa !3
  %call = call noundef double @_ZSt13__invoke_implIdRN8QuantLib12_GLOBAL__N_19IntegrandEJdEET_St14__invoke_otherOT0_DpOT1_(ptr noundef nonnull align 8 dereferenceable(88) %0, ptr noundef nonnull align 8 dereferenceable(8) %1)
  ret double %call
}

; Function Attrs: mustprogress nounwind uwtable
define internal noundef ptr @_ZNSt14_Function_base13_Base_managerIN8QuantLib12_GLOBAL__N_19IntegrandEE14_M_get_pointerERKSt9_Any_data(ptr noundef nonnull align 8 dereferenceable(16) %__source) #1 align 2 {
entry:
  %__source.addr = alloca ptr, align 8
  store ptr %__source, ptr %__source.addr, align 8, !tbaa !3
  %0 = load ptr, ptr %__source.addr, align 8, !tbaa !3
  %call = call noundef nonnull align 8 dereferenceable(8) ptr @_ZNKSt9_Any_data9_M_accessIPN8QuantLib12_GLOBAL__N_19IntegrandEEERKT_v(ptr noundef nonnull align 8 dereferenceable(16) %0) #13
  %1 = load ptr, ptr %call, align 8, !tbaa !3
  ret ptr %1
}

; Function Attrs: mustprogress uwtable
define internal noundef double @_ZNSt17_Function_handlerIFddEN8QuantLib12_GLOBAL__N_19IntegrandEE9_M_invokeERKSt9_Any_dataOd(ptr noundef nonnull align 8 dereferenceable(16) %__functor, ptr noundef nonnull align 8 dereferenceable(8) %__args) #2 align 2 {
entry:
  %__functor.addr = alloca ptr, align 8
  %__args.addr = alloca ptr, align 8
  store ptr %__functor, ptr %__functor.addr, align 8, !tbaa !3
  store ptr %__args, ptr %__args.addr, align 8, !tbaa !3
  %0 = load ptr, ptr %__functor.addr, align 8, !tbaa !3
  %call = call noundef ptr @_ZNSt14_Function_base13_Base_managerIN8QuantLib12_GLOBAL__N_19IntegrandEE14_M_get_pointerERKSt9_Any_data(ptr noundef nonnull align 8 dereferenceable(16) %0) #13
  %1 = load ptr, ptr %__args.addr, align 8, !tbaa !3
  %call1 = call noundef double @_ZSt10__invoke_rIdRN8QuantLib12_GLOBAL__N_19IntegrandEJdEENSt9enable_ifIX16is_invocable_r_vIT_T0_DpT1_EES5_E4typeEOS6_DpOS7_(ptr noundef nonnull align 8 dereferenceable(88) %call, ptr noundef nonnull align 8 dereferenceable(8) %1)
  ret double %call1
}