; Function Attrs: mustprogress uwtable
define internal noundef double @_ZNSt17_Function_handlerIFddEN8QuantLib12_GLOBAL__N_19IntegrandEE9_M_invokeERKSt9_Any_dataOd(ptr nocapture noundef nonnull readonly align 8 dereferenceable(16) %__functor, ptr nocapture noundef nonnull readonly align 8 dereferenceable(8) %__args) #8 align 2 personality ptr @__gxx_personality_v0 {
entry:
  %bs.i.i.i = alloca %"class.QuantLib::BlackScholesCalculator", align 8
  %__functor.val = load ptr, ptr %__functor, align 8, !tbaa !3
  %__args.val = load double, ptr %__args, align 8, !tbaa !144
  %s0_.i.i.i = getelementptr inbounds nuw i8, ptr %__functor.val, i64 16
  %0 = load double, ptr %s0_.i.i.i, align 8, !tbaa !101
  %theta_.i.i.i = getelementptr inbounds nuw i8, ptr %__functor.val, i64 64
  %1 = load double, ptr %theta_.i.i.i, align 8, !tbaa !108
  %omega_.i.i.i = getelementptr inbounds nuw i8, ptr %__functor.val, i64 72
  %2 = load double, ptr %omega_.i.i.i, align 8, !tbaa !111
  %t_.i.i.i = getelementptr inbounds nuw i8, ptr %__functor.val, i64 24
  %3 = load double, ptr %t_.i.i.i, align 8, !tbaa !103
  %mul2.i.i.i = fmul double %2, %3
  %4 = tail call double @llvm.fmuladd.f64(double %1, double %__args.val, double %mul2.i.i.i)
  %sigma_.i.i.i = getelementptr inbounds nuw i8, ptr %__functor.val, i64 48
  %5 = load double, ptr %sigma_.i.i.i, align 8, !tbaa !106
  %mul.i.i.i = fmul double %5, %5
  %mul4.i.i.i = fmul double %__args.val, %mul.i.i.i
  %div.i.i.i = fmul double %mul4.i.i.i, 5.000000e-01
  %add.i.i.i = fadd double %4, %div.i.i.i
  %call.i.i.i = tail call double @exp(double noundef %add.i.i.i) #26, !tbaa !109
  %mul5.i.i.i = fmul double %0, %call.i.i.i
  %div8.i.i.i = fdiv double %__args.val, %3
  %call9.i.i.i = tail call double @sqrt(double noundef %div8.i.i.i) #26, !tbaa !109
  %mul10.i.i.i = fmul double %5, %call9.i.i.i
  %call12.i.i.i = tail call double @sqrt(double noundef %3) #26, !tbaa !109
  %mul13.i.i.i = fmul double %mul10.i.i.i, %call12.i.i.i
  call void @llvm.lifetime.start.p0(i64 168, ptr nonnull %bs.i.i.i) #26
  %dividendDiscount_.i.i.i = getelementptr inbounds nuw i8, ptr %__functor.val, i64 40
  %6 = load double, ptr %dividendDiscount_.i.i.i, align 8, !tbaa !105
  %riskFreeDiscount_.i.i.i = getelementptr inbounds nuw i8, ptr %__functor.val, i64 32
  %7 = load double, ptr %riskFreeDiscount_.i.i.i, align 8, !tbaa !104
  call void @_ZN8QuantLib22BlackScholesCalculatorC1ERKN5boost10shared_ptrINS_17StrikedTypePayoffEEEdddd(ptr noundef nonnull align 8 dereferenceable(168) %bs.i.i.i, ptr noundef nonnull align 8 dereferenceable(16) %__functor.val, double noundef %mul5.i.i.i, double noundef %6, double noundef %mul13.i.i.i, double noundef %7)
  %call14.i.i.i = call noundef double @_ZNK8QuantLib15BlackCalculator5valueEv(ptr noundef nonnull align 8 dereferenceable(152) %bs.i.i.i)
  %8 = load double, ptr %t_.i.i.i, align 8, !tbaa !103
  %nu_.i.i.i = getelementptr inbounds nuw i8, ptr %__functor.val, i64 56
  %9 = load double, ptr %nu_.i.i.i, align 8, !tbaa !107
  %div16.i.i.i = fdiv double %8, %9
  %sub.i.i.i = fadd double %div16.i.i.i, -1.000000e+00
  %call17.i.i.i = call double @pow(double noundef %__args.val, double noundef %sub.i.i.i) #26, !tbaa !109
  %fneg.i.i.i = fneg double %__args.val
  %div19.i.i.i = fdiv double %fneg.i.i.i, %9
  %call20.i.i.i = call double @exp(double noundef %div19.i.i.i) #26, !tbaa !109
  %mul21.i.i.i = fmul double %call17.i.i.i, %call20.i.i.i
  %gammaDenom_.i.i.i = getelementptr inbounds nuw i8, ptr %__functor.val, i64 80
  %10 = load double, ptr %gammaDenom_.i.i.i, align 8, !tbaa !112
  %div22.i.i.i = fdiv double %mul21.i.i.i, %10
  %mul23.i.i.i = fmul double %call14.i.i.i, %div22.i.i.i
  call void @llvm.lifetime.end.p0(i64 168, ptr nonnull %bs.i.i.i) #26
  ret double %mul23.i.i.i
}